; Function Attrs: mustprogress uwtable
define noundef nonnull align 8 dereferenceable(64) ptr @_ZNK6icu_7722LocaleDisplayNamesImpl14keyDisplayNameEPKcRNS_13UnicodeStringEb(ptr noundef nonnull align 8 dereferenceable(1206) %0, ptr noundef %1, ptr noundef nonnull returned align 8 dereferenceable(64) %2, i1 noundef zeroext %3) local_unnamed_addr #1 align 2 {
  %5 = alloca i32, align 4
  %6 = alloca i32, align 4
  %7 = getelementptr inbounds nuw i8, ptr %0, i64 1196
  %8 = load i32, ptr %7, align 4, !tbaa !35
  %9 = icmp eq i32 %8, 768
  %10 = getelementptr inbounds nuw i8, ptr %0, i64 240
  br i1 %9, label %11, label %13

11:                                               ; preds = %4
  %12 = tail call noundef nonnull align 8 dereferenceable(64) ptr @_ZNK6icu_7712ICUDataTable3getEPKcS2_S2_RNS_13UnicodeStringE(ptr noundef nonnull align 8 dereferenceable(232) %10, ptr noundef nonnull @.str.18, ptr noundef null, ptr noundef %1, ptr noundef nonnull align 8 dereferenceable(64) %2)
  br label %32

13:                                               ; preds = %4
  call void @llvm.lifetime.start.p0(i64 4, ptr nonnull %5) #19
  store i32 0, ptr %5, align 4, !tbaa !13
  call void @llvm.lifetime.start.p0(i64 4, ptr nonnull %6) #19
  store i32 0, ptr %6, align 4, !tbaa !12
  %14 = load ptr, ptr %10, align 8, !tbaa !15
  %15 = getelementptr inbounds nuw i8, ptr %0, i64 288
  %16 = load ptr, ptr %15, align 8, !tbaa !19
  %17 = call ptr @uloc_getTableStringWithFallback_77(ptr noundef %14, ptr noundef %16, ptr noundef nonnull @.str.18, ptr noundef null, ptr noundef %1, ptr noundef nonnull %6, ptr noundef nonnull %5)
  %18 = load i32, ptr %5, align 4, !tbaa !13
  %19 = icmp sgt i32 %18, 0
  br i1 %19, label %31, label %20

20:                                               ; preds = %13
  %21 = load i32, ptr %6, align 4, !tbaa !12
  call void @_ZN6icu_7713UnicodeString7unBogusEv(ptr noundef nonnull align 8 dereferenceable(64) %2)
  %22 = getelementptr inbounds nuw i8, ptr %2, i64 8
  %23 = load i16, ptr %22, align 8, !tbaa !20
  %24 = icmp slt i16 %23, 0
  %25 = ashr i16 %23, 5
  %26 = sext i16 %25 to i32
  %27 = getelementptr inbounds nuw i8, ptr %2, i64 12
  %28 = load i32, ptr %27, align 4
  %29 = select i1 %24, i32 %28, i32 %26
  %30 = call noundef nonnull align 8 dereferenceable(64) ptr @_ZN6icu_7713UnicodeString9doReplaceEiiPKDsii(ptr noundef nonnull align 8 dereferenceable(64) %2, i32 noundef 0, i32 noundef %29, ptr noundef %17, i32 noundef 0, i32 noundef %21)
  br label %_ZNK6icu_7712ICUDataTable13getNoFallbackEPKcS2_RNS_13UnicodeStringE.exit

31:                                               ; preds = %13
  call void @_ZN6icu_7713UnicodeString10setToBogusEv(ptr noundef nonnull align 8 dereferenceable(64) %2)
  br label %_ZNK6icu_7712ICUDataTable13getNoFallbackEPKcS2_RNS_13UnicodeStringE.exit

_ZNK6icu_7712ICUDataTable13getNoFallbackEPKcS2_RNS_13UnicodeStringE.exit: ; preds = %20, %31
  call void @llvm.lifetime.end.p0(i64 4, ptr nonnull %6) #19
  call void @llvm.lifetime.end.p0(i64 4, ptr nonnull %5) #19
  br label %32

32:                                               ; preds = %_ZNK6icu_7712ICUDataTable13getNoFallbackEPKcS2_RNS_13UnicodeStringE.exit, %11
  br i1 %3, label %35, label %33

33:                                               ; preds = %32
  %34 = call noundef nonnull align 8 dereferenceable(64) ptr @_ZNK6icu_7722LocaleDisplayNamesImpl24adjustForUsageAndContextENS0_15CapContextUsageERNS_13UnicodeStringE(ptr noundef nonnull align 8 dereferenceable(1206) %0, i32 noundef 4, ptr noundef nonnull align 8 dereferenceable(64) %2)
  br label %35

35:                                               ; preds = %32, %33
  ret ptr %2
}